******************************************************************************
             TMS320C2000 Linker PC v22.6.0                     
******************************************************************************
>> Linked Mon Dec 19 15:33:58 2022

OUTPUT FILE NAME:   <projectUPS.out>
ENTRY POINT SYMBOL: "code_start"  address: 00080000


MEMORY CONFIGURATION

         name            origin    length      used     unused   attr    fill
----------------------  --------  ---------  --------  --------  ----  --------
PAGE 0:
  RAMM0                 000000f5   0000030b  00000049  000002c2  RWIX
  RAMLS01234            00008000   00002800  00000000  00002800  RWIX
  RAMGS0                0000c000   00002000  00000000  00002000  RWIX
  BEGIN                 00080000   00000002  00000002  00000000  RWIX
  FLASH_BANK0_SEC0      00080002   00000ffe  00000000  00000ffe  RWIX
  FLASH_BANK0_SEC1      00081000   00001000  00000cd3  0000032d  RWIX
  FLASH_BANK0_SEC2      00082000   00001000  00000000  00001000  RWIX
  FLASH_BANK0_SEC3      00083000   00001000  00000000  00001000  RWIX
  FLASH_BANK0_SEC4      00084000   00001000  00000000  00001000  RWIX
  FLASH_BANK0_SEC5      00085000   00001000  00000000  00001000  RWIX
  FLASH_BANK0_SEC6      00086000   00001000  00000000  00001000  RWIX
  FLASH_BANK0_SEC7      00087000   00001000  00000000  00001000  RWIX
  FLASH_BANK0_SEC8      00088000   00001000  00000000  00001000  RWIX
  FLASH_BANK0_SEC9      00089000   00001000  00000000  00001000  RWIX
  FLASH_BANK0_SEC10     0008a000   00001000  00000000  00001000  RWIX
  FLASH_BANK0_SEC11     0008b000   00001000  00000000  00001000  RWIX
  FLASH_BANK0_SEC12     0008c000   00001000  00000000  00001000  RWIX
  FLASH_BANK0_SEC13     0008d000   00001000  00000000  00001000  RWIX
  FLASH_BANK0_SEC14     0008e000   00001000  00000000  00001000  RWIX
  FLASH_BANK0_SEC15     0008f000   00001000  00000000  00001000  RWIX
  FLASH_BANK1_SEC0      00090000   00001000  00000000  00001000  RWIX
  FLASH_BANK1_SEC1      00091000   00001000  00000000  00001000  RWIX
  FLASH_BANK1_SEC2      00092000   00001000  00000000  00001000  RWIX
  FLASH_BANK1_SEC3      00093000   00001000  00000000  00001000  RWIX
  FLASH_BANK1_SEC4      00094000   00001000  00000000  00001000  RWIX
  FLASH_BANK1_SEC5      00095000   00001000  00000000  00001000  RWIX
  FLASH_BANK1_SEC6      00096000   00001000  00000000  00001000  RWIX
  FLASH_BANK1_SEC7      00097000   00001000  00000000  00001000  RWIX
  FLASH_BANK1_SEC8      00098000   00001000  00000000  00001000  RWIX
  FLASH_BANK1_SEC9      00099000   00001000  00000000  00001000  RWIX
  FLASH_BANK1_SEC10     0009a000   00001000  00000000  00001000  RWIX
  FLASH_BANK1_SEC11     0009b000   00001000  00000000  00001000  RWIX
  FLASH_BANK1_SEC12     0009c000   00001000  00000000  00001000  RWIX
  FLASH_BANK1_SEC13     0009d000   00001000  00000000  00001000  RWIX
  FLASH_BANK1_SEC14     0009e000   00001000  00000000  00001000  RWIX
  FLASH_BANK1_SEC15     0009f000   00001000  00000000  00001000  RWIX
  RESET                 003fffc0   00000002  00000000  00000002  RWIX

PAGE 1:
  BOOT_RSVD             00000002   000000f3  00000000  000000f3  RWIX
  RAMM1                 00000400   00000400  00000212  000001ee  RWIX
  RAMLS567              0000a800   00001800  00000006  000017fa  RWIX
  RAMGS1                0000e000   00002000  00000000  00002000  RWIX
  RAMGS2                00010000   00002000  00000000  00002000  RWIX
  RAMGS3                00012000   00002000  00000000  00002000  RWIX


SECTION ALLOCATION MAP

 output                                  attributes/
section   page    origin      length       input sections
--------  ----  ----------  ----------   ----------------
codestart 
*          0    00080000    00000002     
                  00080000    00000002     f28004x_codestartbranch.obj (codestart)

.cinit     0    00081cb8    00000020     
                  00081cb8    0000000e     (.cinit..data.load) [load image, compression = lzss]
                  00081cc6    00000006     (__TI_handler_table)
                  00081ccc    00000004     (.cinit..bss.load) [load image, compression = zero_init]
                  00081cd0    00000008     (__TI_cinit_table)

.init_array 
*          0    00081000    00000000     UNINITIALIZED

.reset     0    003fffc0    00000000     DSECT

.stack     1    00000400    00000200     UNINITIALIZED
                  00000400    00000200     --HOLE--

.bss       1    0000a800    00000006     UNINITIALIZED
                  0000a800    00000006     project_main.obj (.bss)

.TI.ramfunc 
*          0    00081000    00000049     RUN ADDR = 000000f8
                  00081000    00000045     driverlib_eabi.lib : flash.obj (.TI.ramfunc:Flash_initModule)
                  00081045    00000004                        : sysctl.obj (.TI.ramfunc)

ramfuncs   0    00081049    00000000     UNINITIALIZEDRUN ADDR = 00000141

dclfuncs   0    00081049    00000000     UNINITIALIZEDRUN ADDR = 00000141

.text      0    0008104c    00000c6a     
                  0008104c    00000499     project_functions.obj (.text)
                  000814e5    00000182     device.obj (.text)
                  00081667    0000016b     project_main.obj (.text)
                  000817d2    000000ba     driverlib_eabi.lib : sysctl.obj (.text:SysCtl_isPLLValid)
                  0008188c    000000b3                        : sysctl.obj (.text:SysCtl_setClock)
                  0008193f    00000059     project_main.obj (.text:retain)
                  00081998    00000041     driverlib_eabi.lib : interrupt.obj (.text:Interrupt_initModule)
                  000819d9    0000003f                        : gpio.obj (.text:GPIO_setPadConfig)
                  00081a18    00000034                        : interrupt.obj (.text:Interrupt_enable)
                  00081a4c    00000032                        : adc.obj (.text:ADC_setVREF)
                  00081a7e    00000030                        : gpio.obj (.text:GPIO_setPinConfig)
                  00081aae    0000002e     rts2800_fpu32_eabi.lib : copy_decompress_lzss.c.obj (.text:decompress:lzss)
                  00081adc    0000002d     driverlib_eabi.lib : sysctl.obj (.text:SysCtl_selectOscSource)
                  00081b09    0000002b     rts2800_fpu32_eabi.lib : autoinit.c.obj (.text:__TI_auto_init_nobinit_nopinit)
                  00081b34    00000029                            : exit.c.obj (.text)
                  00081b5d    00000028     driverlib_eabi.lib : sysctl.obj (.text:SysCtl_selectXTAL)
                  00081b85    00000022                        : sysctl.obj (.text:SysCtl_pollX1Counter)
                  00081ba7    00000021                        : gpio.obj (.text:GPIO_setAnalogMode)
                  00081bc8    00000020                        : gpio.obj (.text:GPIO_setDirectionMode)
                  00081be8    0000001d     rts2800_fpu32_eabi.lib : memcpy.c.obj (.text)
                  00081c05    0000001c     driverlib_eabi.lib : sysctl.obj (.text:SysCtl_selectXTALSingleEnded)
                  00081c21    0000001b                        : adc.obj (.text:ADC_setOffsetTrimAll)
                  00081c3c    00000017     rts2800_fpu32_eabi.lib : boot28.asm.obj (.text)
                  00081c53    00000015     driverlib_eabi.lib : interrupt.obj (.text:Interrupt_initVectorTable)
                  00081c68    0000000d     rts2800_fpu32_eabi.lib : copy_zero_init.c.obj (.text:decompress:ZI:__TI_zero_init_nomemset)
                  00081c75    0000000c                            : args_main.c.obj (.text)
                  00081c81    0000000b     project_functions.obj (.text:__relaxed_sinf)
                  00081c8c    00000009     rts2800_fpu32_eabi.lib : _lock.c.obj (.text)
                  00081c95    00000008                            : copy_decompress_none.c.obj (.text:decompress:none)
                  00081c9d    00000008     f28004x_codestartbranch.obj (.text)
                  00081ca5    00000006     driverlib_eabi.lib : cputimer.obj (.text:CPUTimer_setEmulationMode)
                  00081cab    00000004                        : interrupt.obj (.text:Interrupt_defaultHandler)
                  00081caf    00000002                        : interrupt.obj (.text:Interrupt_illegalOperationHandler)
                  00081cb1    00000002                        : interrupt.obj (.text:Interrupt_nmiHandler)
                  00081cb3    00000002     rts2800_fpu32_eabi.lib : pre_init.c.obj (.text)
                  00081cb5    00000001                            : startup.c.obj (.text)

.data      1    00000600    00000012     UNINITIALIZED
                  00000600    00000008     project_main.obj (.data)
                  00000608    00000006     rts2800_fpu32_eabi.lib : exit.c.obj (.data)
                  0000060e    00000002                            : _lock.c.obj (.data:_lock)
                  00000610    00000002                            : _lock.c.obj (.data:_unlock)

MODULE SUMMARY

       Module                        code   ro data   rw data
       ------                        ----   -------   -------
    .\
       project_functions.obj         1188   0         0      
       project_main.obj              452    0         14     
    +--+-----------------------------+------+---------+---------+
       Total:                        1640   0         14     
                                                             
    .\device\
       device.obj                    386    0         0      
       f28004x_codestartbranch.obj   10     0         0      
    +--+-----------------------------+------+---------+---------+
       Total:                        396    0         0      
                                                             
    D:/SOFTWARES/TI/ccs/tools/compiler/ti-cgt-c2000_22.6.0.LTS/lib/rts2800_fpu32_eabi.lib
       exit.c.obj                    41     0         6      
       copy_decompress_lzss.c.obj    46     0         0      
       autoinit.c.obj                43     0         0      
       memcpy.c.obj                  29     0         0      
       boot28.asm.obj                23     0         0      
       _lock.c.obj                   9      0         4      
       copy_zero_init.c.obj          13     0         0      
       args_main.c.obj               12     0         0      
       copy_decompress_none.c.obj    8      0         0      
       pre_init.c.obj                2      0         0      
       startup.c.obj                 1      0         0      
    +--+-----------------------------+------+---------+---------+
       Total:                        227    0         10     
                                                             
    D:\WORKSPACE\TI2\projectUPS\device\driverlib\driverlib_eabi.lib
       sysctl.obj                    520    0         0      
       gpio.obj                      176    0         0      
       interrupt.obj                 146    0         0      
       flash.obj                     138    0         0      
       adc.obj                       77     0         0      
       cputimer.obj                  6      0         0      
    +--+-----------------------------+------+---------+---------+
       Total:                        1063   0         0      
                                                             
       Stack:                        0      0         512    
       Linker Generated:             0      32        0      
    +--+-----------------------------+------+---------+---------+
       Grand Total:                  3326   32        536    


LINKER GENERATED COPY TABLES

__TI_cinit_table @ 00081cd0 records: 2, size/record: 4, table size: 8
	.data: load addr=00081cb8, load size=0000000e bytes, run addr=00000600, run size=00000012 bytes, compression=lzss
	.bss: load addr=00081ccc, load size=00000004 bytes, run addr=0000a800, run size=00000006 bytes, compression=zero_init


LINKER GENERATED HANDLER TABLE

__TI_handler_table @ 00081cc6 records: 3, size/record: 2, table size: 6
	index: 0, handler: __TI_decompress_lzss
	index: 1, handler: __TI_decompress_none
	index: 2, handler: __TI_zero_init


GLOBAL DATA SYMBOLS: SORTED BY DATA PAGE

address     data page           name
--------    ----------------    ----
00000400      10 (00000400)     __stack

00000600      18 (00000600)     invSine
00000602      18 (00000600)     invModIndex
00000604      18 (00000600)     invDutyPU
00000606      18 (00000600)     adcRes
00000608      18 (00000600)     __TI_enable_exit_profile_output
0000060a      18 (00000600)     __TI_cleanup_ptr
0000060c      18 (00000600)     __TI_dtors_ptr
0000060e      18 (00000600)     _lock
00000610      18 (00000600)     _unlock

0000a800     2a0 (0000a800)     rgen1


GLOBAL SYMBOLS: SORTED ALPHABETICALLY BY Name 

page  address   name                           
----  -------   ----                           
0     00081c21  ADC_setOffsetTrimAll           
0     00081a4c  ADC_setVREF                    
0     00081b34  C$$EXIT                        
0     00081ca5  CPUTimer_setEmulationMode      
0     00081573  Device_enableAllPeripherals    
0     00081535  Device_init                    
0     00081650  Device_initGPIO                
0     000000f8  Flash_initModule               
0     00081ba7  GPIO_setAnalogMode             
0     00081bc8  GPIO_setDirectionMode          
0     000819d9  GPIO_setPadConfig              
0     00081a7e  GPIO_setPinConfig              
0     00081a18  Interrupt_enable               
0     00081998  Interrupt_initModule           
0     00081c53  Interrupt_initVectorTable      
abs   00081049  RamfuncsLoadEnd                
abs   00000049  RamfuncsLoadSize               
abs   00081000  RamfuncsLoadStart              
abs   00000141  RamfuncsRunEnd                 
abs   00000049  RamfuncsRunSize                
abs   000000f8  RamfuncsRunStart               
0     0000013d  SysCtl_delay                   
0     000817d2  SysCtl_isPLLValid              
0     00081adc  SysCtl_selectOscSource         
0     00081b5d  SysCtl_selectXTAL              
0     00081c05  SysCtl_selectXTALSingleEnded   
0     0008188c  SysCtl_setClock                
0     00081cd0  __TI_CINIT_Base                
0     00081cd8  __TI_CINIT_Limit               
0     00081cd8  __TI_CINIT_Warm                
0     00081cc6  __TI_Handler_Table_Base        
0     00081ccc  __TI_Handler_Table_Limit       
1     00000600  __TI_STACK_END                 
abs   00000200  __TI_STACK_SIZE                
0     00081b09  __TI_auto_init_nobinit_nopinit 
1     0000060a  __TI_cleanup_ptr               
0     00081aae  __TI_decompress_lzss           
0     00081c95  __TI_decompress_none           
1     0000060c  __TI_dtors_ptr                 
1     00000608  __TI_enable_exit_profile_output
abs   ffffffff  __TI_pprof_out_hndl            
abs   ffffffff  __TI_prof_data_size            
abs   ffffffff  __TI_prof_data_start           
0     00081c68  __TI_zero_init_nomemset        
n/a   UNDEFED   __c_args__                     
0     00081660  __error__                      
0     00081c81  __relaxed_sinf                 
1     00000400  __stack                        
0     00081c75  _args_main                     
0     00081c3c  _c_int00                       
1     0000060e  _lock                          
0     00081c94  _nop                           
0     00081c90  _register_lock                 
0     00081c8c  _register_unlock               
0     00081cb5  _system_post_cinit             
0     00081cb3  _system_pre_init               
1     00000610  _unlock                        
0     00081b34  abort                          
1     00000606  adcRes                         
0     00080000  code_start                     
0     000813d7  disablePWMCLKCounting          
0     000813dc  enablePWMCLKCounting           
0     00081b36  exit                           
1     00000604  invDutyPU                      
1     00000602  invModIndex                    
1     00000600  invSine                        
0     0008193f  inverterISR                    
0     000817aa  main                           
0     00081be8  memcpy                         
1     0000a800  rgen1                          
0     000813b2  setupADC                       
0     0008134f  setupDevice                    
0     000813e1  setupInverterPWM               


GLOBAL SYMBOLS: SORTED BY Symbol Address 

page  address   name                           
----  -------   ----                           
0     000000f8  Flash_initModule               
0     0000013d  SysCtl_delay                   
0     00080000  code_start                     
0     0008134f  setupDevice                    
0     000813b2  setupADC                       
0     000813d7  disablePWMCLKCounting          
0     000813dc  enablePWMCLKCounting           
0     000813e1  setupInverterPWM               
0     00081535  Device_init                    
0     00081573  Device_enableAllPeripherals    
0     00081650  Device_initGPIO                
0     00081660  __error__                      
0     000817aa  main                           
0     000817d2  SysCtl_isPLLValid              
0     0008188c  SysCtl_setClock                
0     0008193f  inverterISR                    
0     00081998  Interrupt_initModule           
0     000819d9  GPIO_setPadConfig              
0     00081a18  Interrupt_enable               
0     00081a4c  ADC_setVREF                    
0     00081a7e  GPIO_setPinConfig              
0     00081aae  __TI_decompress_lzss           
0     00081adc  SysCtl_selectOscSource         
0     00081b09  __TI_auto_init_nobinit_nopinit 
0     00081b34  C$$EXIT                        
0     00081b34  abort                          
0     00081b36  exit                           
0     00081b5d  SysCtl_selectXTAL              
0     00081ba7  GPIO_setAnalogMode             
0     00081bc8  GPIO_setDirectionMode          
0     00081be8  memcpy                         
0     00081c05  SysCtl_selectXTALSingleEnded   
0     00081c21  ADC_setOffsetTrimAll           
0     00081c3c  _c_int00                       
0     00081c53  Interrupt_initVectorTable      
0     00081c68  __TI_zero_init_nomemset        
0     00081c75  _args_main                     
0     00081c81  __relaxed_sinf                 
0     00081c8c  _register_unlock               
0     00081c90  _register_lock                 
0     00081c94  _nop                           
0     00081c95  __TI_decompress_none           
0     00081ca5  CPUTimer_setEmulationMode      
0     00081cb3  _system_pre_init               
0     00081cb5  _system_post_cinit             
0     00081cc6  __TI_Handler_Table_Base        
0     00081ccc  __TI_Handler_Table_Limit       
0     00081cd0  __TI_CINIT_Base                
0     00081cd8  __TI_CINIT_Limit               
0     00081cd8  __TI_CINIT_Warm                
1     00000400  __stack                        
1     00000600  __TI_STACK_END                 
1     00000600  invSine                        
1     00000602  invModIndex                    
1     00000604  invDutyPU                      
1     00000606  adcRes                         
1     00000608  __TI_enable_exit_profile_output
1     0000060a  __TI_cleanup_ptr               
1     0000060c  __TI_dtors_ptr                 
1     0000060e  _lock                          
1     00000610  _unlock                        
1     0000a800  rgen1                          
abs   00000049  RamfuncsLoadSize               
abs   00000049  RamfuncsRunSize                
abs   000000f8  RamfuncsRunStart               
abs   00000141  RamfuncsRunEnd                 
abs   00000200  __TI_STACK_SIZE                
abs   00081000  RamfuncsLoadStart              
abs   00081049  RamfuncsLoadEnd                
abs   ffffffff  __TI_pprof_out_hndl            
abs   ffffffff  __TI_prof_data_size            
abs   ffffffff  __TI_prof_data_start           
n/a   UNDEFED   __c_args__                     

[73 symbols]
